
led.elf:     file format elf32-littlearm


Disassembly of section .text:

40000000 <_start>:
40000000:	e52db008 	str	fp, [sp, #-8]!
40000004:	e58de004 	str	lr, [sp, #4]
40000008:	e28db004 	add	fp, sp, #4
4000000c:	e30e3020 	movw	r3, #57376	; 0xe020
40000010:	e34c3001 	movt	r3, #49153	; 0xc001
40000014:	e30e2020 	movw	r2, #57376	; 0xe020
40000018:	e34c2001 	movt	r2, #49153	; 0xc001
4000001c:	e5922000 	ldr	r2, [r2]
40000020:	e3c22303 	bic	r2, r2, #201326592	; 0xc000000
40000024:	e5832000 	str	r2, [r3]
40000028:	e30c3024 	movw	r3, #49188	; 0xc024
4000002c:	e34c3001 	movt	r3, #49153	; 0xc001
40000030:	e30c2024 	movw	r2, #49188	; 0xc024
40000034:	e34c2001 	movt	r2, #49153	; 0xc001
40000038:	e5922000 	ldr	r2, [r2]
4000003c:	e3822002 	orr	r2, r2, #2
40000040:	e5832000 	str	r2, [r3]
40000044:	e30c3020 	movw	r3, #49184	; 0xc020
40000048:	e34c3001 	movt	r3, #49153	; 0xc001
4000004c:	e30c2020 	movw	r2, #49184	; 0xc020
40000050:	e34c2001 	movt	r2, #49153	; 0xc001
40000054:	e5922000 	ldr	r2, [r2]
40000058:	e3822801 	orr	r2, r2, #65536	; 0x10000
4000005c:	e5832000 	str	r2, [r3]
40000060:	e30c3020 	movw	r3, #49184	; 0xc020
40000064:	e34c3001 	movt	r3, #49153	; 0xc001
40000068:	e30c2020 	movw	r2, #49184	; 0xc020
4000006c:	e34c2001 	movt	r2, #49153	; 0xc001
40000070:	e5922000 	ldr	r2, [r2]
40000074:	e3822901 	orr	r2, r2, #16384	; 0x4000
40000078:	e5832000 	str	r2, [r3]
4000007c:	e30e3004 	movw	r3, #57348	; 0xe004
40000080:	e34c3001 	movt	r3, #49153	; 0xc001
40000084:	e30e2004 	movw	r2, #57348	; 0xe004
40000088:	e34c2001 	movt	r2, #49153	; 0xc001
4000008c:	e5922000 	ldr	r2, [r2]
40000090:	e3822a02 	orr	r2, r2, #8192	; 0x2000
40000094:	e5832000 	str	r2, [r3]
40000098:	e30c3004 	movw	r3, #49156	; 0xc004
4000009c:	e34c3001 	movt	r3, #49153	; 0xc001
400000a0:	e30c2004 	movw	r2, #49156	; 0xc004
400000a4:	e34c2001 	movt	r2, #49153	; 0xc001
400000a8:	e5922000 	ldr	r2, [r2]
400000ac:	e3822802 	orr	r2, r2, #131072	; 0x20000
400000b0:	e5832000 	str	r2, [r3]
400000b4:	e30c3004 	movw	r3, #49156	; 0xc004
400000b8:	e34c3001 	movt	r3, #49153	; 0xc001
400000bc:	e30c2004 	movw	r2, #49156	; 0xc004
400000c0:	e34c2001 	movt	r2, #49153	; 0xc001
400000c4:	e5922000 	ldr	r2, [r2]
400000c8:	e3822c01 	orr	r2, r2, #256	; 0x100
400000cc:	e5832000 	str	r2, [r3]
400000d0:	e30c3004 	movw	r3, #49156	; 0xc004
400000d4:	e34c3001 	movt	r3, #49153	; 0xc001
400000d8:	e30c2004 	movw	r2, #49156	; 0xc004
400000dc:	e34c2001 	movt	r2, #49153	; 0xc001
400000e0:	e5922000 	ldr	r2, [r2]
400000e4:	e3822080 	orr	r2, r2, #128	; 0x80
400000e8:	e5832000 	str	r2, [r3]
400000ec:	e3a03a0e 	mov	r3, #57344	; 0xe000
400000f0:	e34c3001 	movt	r3, #49153	; 0xc001
400000f4:	e3a02a0e 	mov	r2, #57344	; 0xe000
400000f8:	e34c2001 	movt	r2, #49153	; 0xc001
400000fc:	e5922000 	ldr	r2, [r2]
40000100:	e3822a02 	orr	r2, r2, #8192	; 0x2000
40000104:	e5832000 	str	r2, [r3]
40000108:	e3a03903 	mov	r3, #49152	; 0xc000
4000010c:	e34c3001 	movt	r3, #49153	; 0xc001
40000110:	e3a02903 	mov	r2, #49152	; 0xc000
40000114:	e34c2001 	movt	r2, #49153	; 0xc001
40000118:	e5922000 	ldr	r2, [r2]
4000011c:	e3822802 	orr	r2, r2, #131072	; 0x20000
40000120:	e5832000 	str	r2, [r3]
40000124:	e3a03903 	mov	r3, #49152	; 0xc000
40000128:	e34c3001 	movt	r3, #49153	; 0xc001
4000012c:	e3a02903 	mov	r2, #49152	; 0xc000
40000130:	e34c2001 	movt	r2, #49153	; 0xc001
40000134:	e5922000 	ldr	r2, [r2]
40000138:	e3822c01 	orr	r2, r2, #256	; 0x100
4000013c:	e5832000 	str	r2, [r3]
40000140:	e3a03903 	mov	r3, #49152	; 0xc000
40000144:	e34c3001 	movt	r3, #49153	; 0xc001
40000148:	e3a02903 	mov	r2, #49152	; 0xc000
4000014c:	e34c2001 	movt	r2, #49153	; 0xc001
40000150:	e5922000 	ldr	r2, [r2]
40000154:	e3822080 	orr	r2, r2, #128	; 0x80
40000158:	e5832000 	str	r2, [r3]
4000015c:	e3a03a0e 	mov	r3, #57344	; 0xe000
40000160:	e34c3001 	movt	r3, #49153	; 0xc001
40000164:	e3a02a0e 	mov	r2, #57344	; 0xe000
40000168:	e34c2001 	movt	r2, #49153	; 0xc001
4000016c:	e5922000 	ldr	r2, [r2]
40000170:	e3c22a02 	bic	r2, r2, #8192	; 0x2000
40000174:	e5832000 	str	r2, [r3]
40000178:	e3a00403 	mov	r0, #50331648	; 0x3000000
4000017c:	eb00003f 	bl	40000280 <delay>
40000180:	e3a03a0e 	mov	r3, #57344	; 0xe000
40000184:	e34c3001 	movt	r3, #49153	; 0xc001
40000188:	e3a02a0e 	mov	r2, #57344	; 0xe000
4000018c:	e34c2001 	movt	r2, #49153	; 0xc001
40000190:	e5922000 	ldr	r2, [r2]
40000194:	e3822a02 	orr	r2, r2, #8192	; 0x2000
40000198:	e5832000 	str	r2, [r3]
4000019c:	e3a00403 	mov	r0, #50331648	; 0x3000000
400001a0:	eb000036 	bl	40000280 <delay>
400001a4:	e3a03903 	mov	r3, #49152	; 0xc000
400001a8:	e34c3001 	movt	r3, #49153	; 0xc001
400001ac:	e3a02903 	mov	r2, #49152	; 0xc000
400001b0:	e34c2001 	movt	r2, #49153	; 0xc001
400001b4:	e5922000 	ldr	r2, [r2]
400001b8:	e3c22802 	bic	r2, r2, #131072	; 0x20000
400001bc:	e5832000 	str	r2, [r3]
400001c0:	e3a00403 	mov	r0, #50331648	; 0x3000000
400001c4:	eb00002d 	bl	40000280 <delay>
400001c8:	e3a03903 	mov	r3, #49152	; 0xc000
400001cc:	e34c3001 	movt	r3, #49153	; 0xc001
400001d0:	e3a02903 	mov	r2, #49152	; 0xc000
400001d4:	e34c2001 	movt	r2, #49153	; 0xc001
400001d8:	e5922000 	ldr	r2, [r2]
400001dc:	e3822802 	orr	r2, r2, #131072	; 0x20000
400001e0:	e5832000 	str	r2, [r3]
400001e4:	e3a00403 	mov	r0, #50331648	; 0x3000000
400001e8:	eb000024 	bl	40000280 <delay>
400001ec:	e3a03903 	mov	r3, #49152	; 0xc000
400001f0:	e34c3001 	movt	r3, #49153	; 0xc001
400001f4:	e3a02903 	mov	r2, #49152	; 0xc000
400001f8:	e34c2001 	movt	r2, #49153	; 0xc001
400001fc:	e5922000 	ldr	r2, [r2]
40000200:	e3c22c01 	bic	r2, r2, #256	; 0x100
40000204:	e5832000 	str	r2, [r3]
40000208:	e3a00403 	mov	r0, #50331648	; 0x3000000
4000020c:	eb00001b 	bl	40000280 <delay>
40000210:	e3a03903 	mov	r3, #49152	; 0xc000
40000214:	e34c3001 	movt	r3, #49153	; 0xc001
40000218:	e3a02903 	mov	r2, #49152	; 0xc000
4000021c:	e34c2001 	movt	r2, #49153	; 0xc001
40000220:	e5922000 	ldr	r2, [r2]
40000224:	e3822c01 	orr	r2, r2, #256	; 0x100
40000228:	e5832000 	str	r2, [r3]
4000022c:	e3a00403 	mov	r0, #50331648	; 0x3000000
40000230:	eb000012 	bl	40000280 <delay>
40000234:	e3a03903 	mov	r3, #49152	; 0xc000
40000238:	e34c3001 	movt	r3, #49153	; 0xc001
4000023c:	e3a02903 	mov	r2, #49152	; 0xc000
40000240:	e34c2001 	movt	r2, #49153	; 0xc001
40000244:	e5922000 	ldr	r2, [r2]
40000248:	e3c22080 	bic	r2, r2, #128	; 0x80
4000024c:	e5832000 	str	r2, [r3]
40000250:	e3a00403 	mov	r0, #50331648	; 0x3000000
40000254:	eb000009 	bl	40000280 <delay>
40000258:	e3a03903 	mov	r3, #49152	; 0xc000
4000025c:	e34c3001 	movt	r3, #49153	; 0xc001
40000260:	e3a02903 	mov	r2, #49152	; 0xc000
40000264:	e34c2001 	movt	r2, #49153	; 0xc001
40000268:	e5922000 	ldr	r2, [r2]
4000026c:	e3822080 	orr	r2, r2, #128	; 0x80
40000270:	e5832000 	str	r2, [r3]
40000274:	e3a00403 	mov	r0, #50331648	; 0x3000000
40000278:	eb000000 	bl	40000280 <delay>
4000027c:	eaffffb6 	b	4000015c <_start+0x15c>

40000280 <delay>:
40000280:	e52db004 	push	{fp}		; (str fp, [sp, #-4]!)
40000284:	e28db000 	add	fp, sp, #0
40000288:	e24dd014 	sub	sp, sp, #20
4000028c:	e50b0010 	str	r0, [fp, #-16]
40000290:	e3a03000 	mov	r3, #0
40000294:	e50b3008 	str	r3, [fp, #-8]
40000298:	ea000002 	b	400002a8 <delay+0x28>
4000029c:	e51b3008 	ldr	r3, [fp, #-8]
400002a0:	e2833001 	add	r3, r3, #1
400002a4:	e50b3008 	str	r3, [fp, #-8]
400002a8:	e51b2008 	ldr	r2, [fp, #-8]
400002ac:	e51b3010 	ldr	r3, [fp, #-16]
400002b0:	e1520003 	cmp	r2, r3
400002b4:	bafffff8 	blt	4000029c <delay+0x1c>
400002b8:	e1a00000 	nop			; (mov r0, r0)
400002bc:	e24bd000 	sub	sp, fp, #0
400002c0:	e49db004 	pop	{fp}		; (ldr fp, [sp], #4)
400002c4:	e12fff1e 	bx	lr

Disassembly of section .comment:

00000000 <.comment>:
   0:	3a434347 	bcc	10d0d24 <_start-0x3ef2f2dc>
   4:	75422820 	strbvc	r2, [r2, #-2080]	; 0xfffff7e0
   8:	72646c69 	rsbvc	r6, r4, #26880	; 0x6900
   c:	20746f6f 	rsbscs	r6, r4, pc, ror #30
  10:	36313032 			; <UNDEFINED> instruction: 0x36313032
  14:	2931312e 	ldmdbcs	r1!, {r1, r2, r3, r5, r8, ip, sp}
  18:	342e3520 	strtcc	r3, [lr], #-1312	; 0xfffffae0
  1c:	Address 0x000000000000001c is out of bounds.


Disassembly of section .ARM.attributes:

00000000 <.ARM.attributes>:
   0:	00003b41 	andeq	r3, r0, r1, asr #22
   4:	61656100 	cmnvs	r5, r0, lsl #2
   8:	01006962 	tsteq	r0, r2, ror #18
   c:	00000031 	andeq	r0, r0, r1, lsr r0
  10:	726f4305 	rsbvc	r4, pc, #335544320	; 0x14000000
  14:	2d786574 	cfldr64cs	mvdx6, [r8, #-464]!	; 0xfffffe30
  18:	00353141 	eorseq	r3, r5, r1, asr #2
  1c:	41070a06 	tstmi	r7, r6, lsl #20
  20:	02090108 	andeq	r0, r9, #8, 2
  24:	01140412 	tsteq	r4, r2, lsl r4
  28:	03170115 	tsteq	r7, #1073741829	; 0x40000005
  2c:	01190118 	tsteq	r9, r8, lsl r1
  30:	061e021a 			; <UNDEFINED> instruction: 0x061e021a
  34:	012a0122 			; <UNDEFINED> instruction: 0x012a0122
  38:	0344022c 	movteq	r0, #16940	; 0x422c
